target datalayout = "e-m:e-p270:32:32-p271:32:32-p272:64:64-i64:64-i128:128-f80:128-n8:16:32:64-S128"
target triple = "x86_64-pc-linux-gnu"

%struct.H5HF_free_section_t = type { %struct.H5FS_section_info_t, %union.anon }
%struct.H5FS_section_info_t = type { i64, i64, i32, i32 }
%union.anon = type { %struct.anon.1 }
%struct.anon.1 = type { %union.anon.2, i32, i32, i32, ptr, i32, i64, i32, i32, i32, ptr, i32, ptr }
%union.anon.2 = type { ptr }
%struct.H5HF_hdr_t = type { %struct.H5C_cache_entry_t, i32, i32, i8, i8, i8, i8, %struct.H5HF_dtable_t, i64, i64, i32, i64, i64, %struct.H5O_pline_t, i64, i32, i64, i64, i64, i64, i64, i64, i64, i64, i64, i64, i64, i32, ptr, i64, i8, i8, i8, ptr, i32, ptr, %struct.H5HF_block_iter_t, ptr, i64, i8, i8, i64, i8, i8, i8, i8 }
%struct.H5C_cache_entry_t = type { ptr, i64, i64, ptr, i8, ptr, i8, i8, i8, i8, i32, i8, i8, i8, i8, i8, i32, ptr, i32, i32, i32, i32, i32, i8, i8, ptr, ptr, ptr, ptr, ptr, ptr, i8, i32, i8, i64, ptr, i64, i64, i32, i8, i32, i32, i8, ptr, ptr, ptr }
%struct.H5HF_dtable_t = type { %struct.H5HF_dtable_cparam_t, i64, i32, i32, i32, i32, i32, i32, i32, i64, ptr, ptr, ptr, ptr }
%struct.H5HF_dtable_cparam_t = type { i32, i64, i64, i32, i32 }
%struct.H5O_pline_t = type { %struct.H5O_shared_t, i32, i64, i64, ptr }
%struct.H5O_shared_t = type { i32, ptr, i32, %union.anon.3 }
%union.anon.3 = type { %struct.H5O_mesg_loc_t }
%struct.H5O_mesg_loc_t = type { i32, i64 }
%struct.H5HF_block_iter_t = type { i8, ptr }
%struct.anon = type { ptr, i32 }
%struct.H5HF_indirect_t = type { %struct.H5C_cache_entry_t, i64, ptr, ptr, ptr, i32, i64, i64, i32, i32, i32, i32, ptr, i8, i64, ptr, ptr }
%struct.H5HF_indirect_ent_t = type { i64 }

@H5HF_init_g = external global i8, align 1
@H5_libterm_g = external global i8, align 1

; Function Attrs: nounwind uwtable
define i32 @H5HF__sect_single_dblock_info(ptr noundef %0, ptr noundef %1, ptr noundef %2, ptr noundef %3) #0 {
  %5 = alloca ptr, align 8
  %6 = alloca ptr, align 8
  %7 = alloca ptr, align 8
  %8 = alloca ptr, align 8
  store ptr %0, ptr %5, align 8, !tbaa !22
  store ptr %1, ptr %6, align 8, !tbaa !23
  store ptr %2, ptr %7, align 8, !tbaa !80
  store ptr %3, ptr %8, align 8, !tbaa !80
  %9 = load i8, ptr @H5HF_init_g, align 1, !tbaa !13, !range !15, !noundef !16
  %10 = trunc i8 %9 to i1
  br i1 %10, label %15, label %11

11:                                               ; preds = %4
  %12 = load i8, ptr @H5_libterm_g, align 1, !tbaa !13, !range !15, !noundef !16
  %13 = trunc i8 %12 to i1
  %14 = xor i1 %13, true
  br label %15

15:                                               ; preds = %11, %4
  %16 = phi i1 [ true, %4 ], [ %14, %11 ]
  %17 = xor i1 %16, true
  %18 = xor i1 %17, true
  %19 = zext i1 %18 to i32
  %20 = sext i32 %19 to i64
  %21 = call i64 @llvm.expect.i64(i64 %20, i64 1)
  %22 = icmp ne i64 %21, 0
  br i1 %22, label %23, label %76

23:                                               ; preds = %15
  %24 = load ptr, ptr %5, align 8, !tbaa !22
  %25 = getelementptr inbounds nuw %struct.H5HF_hdr_t, ptr %24, i32 0, i32 7
  %26 = getelementptr inbounds nuw %struct.H5HF_dtable_t, ptr %25, i32 0, i32 2
  %27 = load i32, ptr %26, align 8, !tbaa !39
  %28 = icmp eq i32 %27, 0
  br i1 %28, label %29, label %41

29:                                               ; preds = %23
  %30 = load ptr, ptr %5, align 8, !tbaa !22
  %31 = getelementptr inbounds nuw %struct.H5HF_hdr_t, ptr %30, i32 0, i32 7
  %32 = getelementptr inbounds nuw %struct.H5HF_dtable_t, ptr %31, i32 0, i32 1
  %33 = load i64, ptr %32, align 8, !tbaa !81
  %34 = load ptr, ptr %7, align 8, !tbaa !80
  store i64 %33, ptr %34, align 8, !tbaa !25
  %35 = load ptr, ptr %5, align 8, !tbaa !22
  %36 = getelementptr inbounds nuw %struct.H5HF_hdr_t, ptr %35, i32 0, i32 7
  %37 = getelementptr inbounds nuw %struct.H5HF_dtable_t, ptr %36, i32 0, i32 0
  %38 = getelementptr inbounds nuw %struct.H5HF_dtable_cparam_t, ptr %37, i32 0, i32 1
  %39 = load i64, ptr %38, align 8, !tbaa !59
  %40 = load ptr, ptr %8, align 8, !tbaa !80
  store i64 %39, ptr %40, align 8, !tbaa !25
  br label %75

41:                                               ; preds = %23
  %42 = load ptr, ptr %6, align 8, !tbaa !23
  %43 = getelementptr inbounds nuw %struct.H5HF_free_section_t, ptr %42, i32 0, i32 1
  %44 = getelementptr inbounds nuw %struct.anon, ptr %43, i32 0, i32 0
  %45 = load ptr, ptr %44, align 8, !tbaa !63
  %46 = getelementptr inbounds nuw %struct.H5HF_indirect_t, ptr %45, i32 0, i32 15
  %47 = load ptr, ptr %46, align 8, !tbaa !82
  %48 = load ptr, ptr %6, align 8, !tbaa !23
  %49 = getelementptr inbounds nuw %struct.H5HF_free_section_t, ptr %48, i32 0, i32 1
  %50 = getelementptr inbounds nuw %struct.anon, ptr %49, i32 0, i32 1
  %51 = load i32, ptr %50, align 8, !tbaa !63
  %52 = zext i32 %51 to i64
  %53 = getelementptr inbounds nuw %struct.H5HF_indirect_ent_t, ptr %47, i64 %52
  %54 = getelementptr inbounds nuw %struct.H5HF_indirect_ent_t, ptr %53, i32 0, i32 0
  %55 = load i64, ptr %54, align 8, !tbaa !83
  %56 = load ptr, ptr %7, align 8, !tbaa !80
  store i64 %55, ptr %56, align 8, !tbaa !25
  %57 = load ptr, ptr %5, align 8, !tbaa !22
  %58 = getelementptr inbounds nuw %struct.H5HF_hdr_t, ptr %57, i32 0, i32 7
  %59 = getelementptr inbounds nuw %struct.H5HF_dtable_t, ptr %58, i32 0, i32 10
  %60 = load ptr, ptr %59, align 8, !tbaa !85
  %61 = load ptr, ptr %6, align 8, !tbaa !23
  %62 = getelementptr inbounds nuw %struct.H5HF_free_section_t, ptr %61, i32 0, i32 1
  %63 = getelementptr inbounds nuw %struct.anon, ptr %62, i32 0, i32 1
  %64 = load i32, ptr %63, align 8, !tbaa !63
  %65 = load ptr, ptr %5, align 8, !tbaa !22
  %66 = getelementptr inbounds nuw %struct.H5HF_hdr_t, ptr %65, i32 0, i32 7
  %67 = getelementptr inbounds nuw %struct.H5HF_dtable_t, ptr %66, i32 0, i32 0
  %68 = getelementptr inbounds nuw %struct.H5HF_dtable_cparam_t, ptr %67, i32 0, i32 0
  %69 = load i32, ptr %68, align 8, !tbaa !86
  %70 = udiv i32 %64, %69
  %71 = zext i32 %70 to i64
  %72 = getelementptr inbounds nuw i64, ptr %60, i64 %71
  %73 = load i64, ptr %72, align 8, !tbaa !25
  %74 = load ptr, ptr %8, align 8, !tbaa !80
  store i64 %73, ptr %74, align 8, !tbaa !25
  br label %75

75:                                               ; preds = %41, %29
  br label %76

76:                                               ; preds = %75, %15
  ret i32 0
}