; Function Attrs: mustprogress nofree norecurse nosync nounwind willreturn memory(read, argmem: readwrite, inaccessiblemem: none) uwtable
define noundef i32 @H5HF__sect_single_dblock_info(ptr noundef readonly captures(none) %0, ptr noundef readonly captures(none) %1, ptr noundef writeonly captures(none) %2, ptr noundef writeonly captures(none) %3) local_unnamed_addr #8 {
  %5 = load i8, ptr @H5HF_init_g, align 1, !tbaa !3, !range !7, !noundef !8
  %6 = trunc nuw i8 %5 to i1
  %7 = load i8, ptr @H5_libterm_g, align 1, !range !7
  %8 = trunc nuw i8 %7 to i1
  %9 = xor i1 %8, true
  %10 = select i1 %6, i1 true, i1 %9
  br i1 %10, label %11, label %37, !prof !9

11:                                               ; preds = %4
  %12 = getelementptr inbounds nuw i8, ptr %0, i64 304
  %13 = load i32, ptr %12, align 8, !tbaa !27
  %14 = icmp eq i32 %13, 0
  br i1 %14, label %15, label %19

15:                                               ; preds = %11
  %16 = getelementptr inbounds nuw i8, ptr %0, i64 296
  %17 = load i64, ptr %16, align 8, !tbaa !75
  store i64 %17, ptr %2, align 8, !tbaa !18
  %18 = getelementptr inbounds nuw i8, ptr %0, i64 272
  br label %.sink.split

19:                                               ; preds = %11
  %20 = getelementptr inbounds nuw i8, ptr %0, i64 264
  %21 = getelementptr inbounds nuw i8, ptr %1, i64 24
  %22 = load ptr, ptr %21, align 8, !tbaa !26
  %23 = getelementptr inbounds nuw i8, ptr %22, i64 344
  %24 = load ptr, ptr %23, align 8, !tbaa !51
  %25 = getelementptr inbounds nuw i8, ptr %1, i64 32
  %26 = load i32, ptr %25, align 8, !tbaa !26
  %27 = zext i32 %26 to i64
  %28 = getelementptr inbounds nuw %struct.H5HF_indirect_ent_t, ptr %24, i64 %27
  %29 = load i64, ptr %28, align 8, !tbaa !76
  store i64 %29, ptr %2, align 8, !tbaa !18
  %30 = getelementptr inbounds nuw i8, ptr %0, i64 344
  %31 = load ptr, ptr %30, align 8, !tbaa !56
  %32 = load i32, ptr %25, align 8, !tbaa !26
  %33 = load i32, ptr %20, align 8, !tbaa !57
  %34 = udiv i32 %32, %33
  %35 = zext i32 %34 to i64
  %36 = getelementptr inbounds nuw i64, ptr %31, i64 %35
  br label %.sink.split

.sink.split:                                      ; preds = %19, %15
  %.sink.in = phi ptr [ %18, %15 ], [ %36, %19 ]
  %.sink = load i64, ptr %.sink.in, align 8, !tbaa !18
  store i64 %.sink, ptr %3, align 8, !tbaa !18
  br label %37

37:                                               ; preds = %.sink.split, %4
  ret i32 0
}